; Function Attrs: mustprogress nounwind uwtable
define dso_local void @_ZN4llvm18IVUsersWrapperPass13releaseMemoryEv(ptr nocapture noundef nonnull readonly align 8 dereferenceable(40) %0) unnamed_addr #0 align 2 {
  %2 = getelementptr inbounds nuw i8, ptr %0, i64 32
  %3 = load ptr, ptr %2, align 8
  %4 = getelementptr inbounds nuw i8, ptr %3, i64 40
  %5 = getelementptr inbounds i8, ptr %3, i64 48
  %6 = load ptr, ptr %5, align 8
  %7 = load ptr, ptr %4, align 8
  %8 = icmp eq ptr %6, %7
  br i1 %8, label %24, label %9

9:                                                ; preds = %1
  %10 = getelementptr inbounds i8, ptr %3, i64 60
  %11 = load i32, ptr %10, align 4
  %12 = getelementptr inbounds i8, ptr %3, i64 64
  %13 = load i32, ptr %12, align 8
  %14 = sub i32 %11, %13
  %15 = shl i32 %14, 2
  %16 = getelementptr inbounds i8, ptr %3, i64 56
  %17 = load i32, ptr %16, align 8
  %18 = icmp ult i32 %15, %17
  %19 = icmp ugt i32 %17, 32
  %or.cond.i.i = and i1 %19, %18
  br i1 %or.cond.i.i, label %20, label %21

20:                                               ; preds = %9
  tail call void @_ZN4llvm19SmallPtrSetImplBase16shrink_and_clearEv(ptr noundef nonnull align 8 dereferenceable(28) %4) #13
  br label %_ZN4llvm7IVUsers13releaseMemoryEv.exit

21:                                               ; preds = %9
  %22 = zext i32 %17 to i64
  %23 = shl nuw nsw i64 %22, 3
  tail call void @llvm.memset.p0.i64(ptr align 8 %6, i8 -1, i64 %23, i1 false)
  br label %24

24:                                               ; preds = %21, %1
  %25 = getelementptr inbounds i8, ptr %3, i64 60
  store i32 0, ptr %25, align 4
  %26 = getelementptr inbounds i8, ptr %3, i64 64
  store i32 0, ptr %26, align 8
  br label %_ZN4llvm7IVUsers13releaseMemoryEv.exit

_ZN4llvm7IVUsers13releaseMemoryEv.exit:           ; preds = %20, %24
  %27 = getelementptr inbounds nuw i8, ptr %3, i64 200
  %28 = getelementptr inbounds i8, ptr %3, i64 208
  %29 = load ptr, ptr %28, align 8
  %30 = tail call ptr @_ZN4llvm11iplist_implINS_12simple_ilistINS_11IVStrideUseEJEEENS_12ilist_traitsIS2_EEE5eraseENS_14ilist_iteratorINS_12ilist_detail12node_optionsIS2_Lb0ELb0EvLb0EvEELb0ELb0EEESB_(ptr noundef nonnull align 8 dereferenceable(16) %27, ptr %29, ptr nonnull %27)
  ret void
}